target datalayout = "e-m:e-p270:32:32-p271:32:32-p272:64:64-i64:64-i128:128-f80:128-n8:16:32:64-S128"
target triple = "x86_64-pc-linux-gnu"

; Function Attrs: nounwind uwtable
define i32 @stb__Lerp13(i32 noundef %0, i32 noundef %1) #0 {
  %3 = alloca i32, align 4
  %4 = alloca i32, align 4
  store i32 %0, ptr %3, align 4, !tbaa !3
  store i32 %1, ptr %4, align 4, !tbaa !3
  %5 = load i32, ptr %3, align 4, !tbaa !3
  %6 = mul nsw i32 2, %5
  %7 = load i32, ptr %4, align 4, !tbaa !3
  %8 = add nsw i32 %6, %7
  %9 = sdiv i32 %8, 3
  ret i32 %9
}

; Function Attrs: nounwind uwtable
define void @stb__Lerp13RGB(ptr noundef %0, ptr noundef %1, ptr noundef %2) #0 {
  %4 = alloca ptr, align 8
  %5 = alloca ptr, align 8
  %6 = alloca ptr, align 8
  store ptr %0, ptr %4, align 8, !tbaa !7
  store ptr %1, ptr %5, align 8, !tbaa !7
  store ptr %2, ptr %6, align 8, !tbaa !7
  %7 = load ptr, ptr %5, align 8, !tbaa !7
  %8 = getelementptr inbounds i8, ptr %7, i64 0
  %9 = load i8, ptr %8, align 1, !tbaa !12
  %10 = zext i8 %9 to i32
  %11 = load ptr, ptr %6, align 8, !tbaa !7
  %12 = getelementptr inbounds i8, ptr %11, i64 0
  %13 = load i8, ptr %12, align 1, !tbaa !12
  %14 = zext i8 %13 to i32
  %15 = call i32 @stb__Lerp13(i32 noundef %10, i32 noundef %14)
  %16 = trunc i32 %15 to i8
  %17 = load ptr, ptr %4, align 8, !tbaa !7
  %18 = getelementptr inbounds i8, ptr %17, i64 0
  store i8 %16, ptr %18, align 1, !tbaa !12
  %19 = load ptr, ptr %5, align 8, !tbaa !7
  %20 = getelementptr inbounds i8, ptr %19, i64 1
  %21 = load i8, ptr %20, align 1, !tbaa !12
  %22 = zext i8 %21 to i32
  %23 = load ptr, ptr %6, align 8, !tbaa !7
  %24 = getelementptr inbounds i8, ptr %23, i64 1
  %25 = load i8, ptr %24, align 1, !tbaa !12
  %26 = zext i8 %25 to i32
  %27 = call i32 @stb__Lerp13(i32 noundef %22, i32 noundef %26)
  %28 = trunc i32 %27 to i8
  %29 = load ptr, ptr %4, align 8, !tbaa !7
  %30 = getelementptr inbounds i8, ptr %29, i64 1
  store i8 %28, ptr %30, align 1, !tbaa !12
  %31 = load ptr, ptr %5, align 8, !tbaa !7
  %32 = getelementptr inbounds i8, ptr %31, i64 2
  %33 = load i8, ptr %32, align 1, !tbaa !12
  %34 = zext i8 %33 to i32
  %35 = load ptr, ptr %6, align 8, !tbaa !7
  %36 = getelementptr inbounds i8, ptr %35, i64 2
  %37 = load i8, ptr %36, align 1, !tbaa !12
  %38 = zext i8 %37 to i32
  %39 = call i32 @stb__Lerp13(i32 noundef %34, i32 noundef %38)
  %40 = trunc i32 %39 to i8
  %41 = load ptr, ptr %4, align 8, !tbaa !7
  %42 = getelementptr inbounds i8, ptr %41, i64 2
  store i8 %40, ptr %42, align 1, !tbaa !12
  ret void
}

; Function Attrs: nounwind uwtable
define void @stb__From16Bit(ptr noundef %0, i16 noundef zeroext %1) #0 {
  %3 = alloca ptr, align 8
  %4 = alloca i16, align 2
  %5 = alloca i32, align 4
  %6 = alloca i32, align 4
  %7 = alloca i32, align 4
  store ptr %0, ptr %3, align 8, !tbaa !7
  store i16 %1, ptr %4, align 2, !tbaa !10
  call void @llvm.lifetime.start.p0(i64 4, ptr %5) #4
  %8 = load i16, ptr %4, align 2, !tbaa !10
  %9 = zext i16 %8 to i32
  %10 = and i32 %9, 63488
  %11 = ashr i32 %10, 11
  store i32 %11, ptr %5, align 4, !tbaa !3
  call void @llvm.lifetime.start.p0(i64 4, ptr %6) #4
  %12 = load i16, ptr %4, align 2, !tbaa !10
  %13 = zext i16 %12 to i32
  %14 = and i32 %13, 2016
  %15 = ashr i32 %14, 5
  store i32 %15, ptr %6, align 4, !tbaa !3
  call void @llvm.lifetime.start.p0(i64 4, ptr %7) #4
  %16 = load i16, ptr %4, align 2, !tbaa !10
  %17 = zext i16 %16 to i32
  %18 = and i32 %17, 31
  %19 = ashr i32 %18, 0
  store i32 %19, ptr %7, align 4, !tbaa !3
  %20 = load i32, ptr %5, align 4, !tbaa !3
  %21 = mul nsw i32 %20, 33
  %22 = ashr i32 %21, 2
  %23 = trunc i32 %22 to i8
  %24 = load ptr, ptr %3, align 8, !tbaa !7
  %25 = getelementptr inbounds i8, ptr %24, i64 0
  store i8 %23, ptr %25, align 1, !tbaa !12
  %26 = load i32, ptr %6, align 4, !tbaa !3
  %27 = mul nsw i32 %26, 65
  %28 = ashr i32 %27, 4
  %29 = trunc i32 %28 to i8
  %30 = load ptr, ptr %3, align 8, !tbaa !7
  %31 = getelementptr inbounds i8, ptr %30, i64 1
  store i8 %29, ptr %31, align 1, !tbaa !12
  %32 = load i32, ptr %7, align 4, !tbaa !3
  %33 = mul nsw i32 %32, 33
  %34 = ashr i32 %33, 2
  %35 = trunc i32 %34 to i8
  %36 = load ptr, ptr %3, align 8, !tbaa !7
  %37 = getelementptr inbounds i8, ptr %36, i64 2
  store i8 %35, ptr %37, align 1, !tbaa !12
  %38 = load ptr, ptr %3, align 8, !tbaa !7
  %39 = getelementptr inbounds i8, ptr %38, i64 3
  store i8 0, ptr %39, align 1, !tbaa !12
  call void @llvm.lifetime.end.p0(i64 4, ptr %7) #4
  call void @llvm.lifetime.end.p0(i64 4, ptr %6) #4
  call void @llvm.lifetime.end.p0(i64 4, ptr %5) #4
  ret void
}

; Function Attrs: nounwind uwtable
define void @stb__EvalColors(ptr noundef %0, i16 noundef zeroext %1, i16 noundef zeroext %2) #0 {
  %4 = alloca ptr, align 8
  %5 = alloca i16, align 2
  %6 = alloca i16, align 2
  store ptr %0, ptr %4, align 8, !tbaa !7
  store i16 %1, ptr %5, align 2, !tbaa !10
  store i16 %2, ptr %6, align 2, !tbaa !10
  %7 = load ptr, ptr %4, align 8, !tbaa !7
  %8 = getelementptr inbounds i8, ptr %7, i64 0
  %9 = load i16, ptr %5, align 2, !tbaa !10
  call void @stb__From16Bit(ptr noundef %8, i16 noundef zeroext %9)
  %10 = load ptr, ptr %4, align 8, !tbaa !7
  %11 = getelementptr inbounds i8, ptr %10, i64 4
  %12 = load i16, ptr %6, align 2, !tbaa !10
  call void @stb__From16Bit(ptr noundef %11, i16 noundef zeroext %12)
  %13 = load ptr, ptr %4, align 8, !tbaa !7
  %14 = getelementptr inbounds i8, ptr %13, i64 8
  %15 = load ptr, ptr %4, align 8, !tbaa !7
  %16 = getelementptr inbounds i8, ptr %15, i64 0
  %17 = load ptr, ptr %4, align 8, !tbaa !7
  %18 = getelementptr inbounds i8, ptr %17, i64 4
  call void @stb__Lerp13RGB(ptr noundef %14, ptr noundef %16, ptr noundef %18)
  %19 = load ptr, ptr %4, align 8, !tbaa !7
  %20 = getelementptr inbounds i8, ptr %19, i64 12
  %21 = load ptr, ptr %4, align 8, !tbaa !7
  %22 = getelementptr inbounds i8, ptr %21, i64 4
  %23 = load ptr, ptr %4, align 8, !tbaa !7
  %24 = getelementptr inbounds i8, ptr %23, i64 0
  call void @stb__Lerp13RGB(ptr noundef %20, ptr noundef %22, ptr noundef %24)
  ret void
}