; Function Attrs: mustprogress nofree norecurse nosync nounwind willreturn memory(argmem: write) uwtable
define void @stb__EvalColors(ptr noundef writeonly captures(none) initializes((0, 11), (12, 15)) %0, i16 noundef zeroext %1, i16 noundef zeroext %2) local_unnamed_addr #2 {
  %4 = lshr i16 %1, 11
  %5 = lshr i16 %1, 5
  %6 = and i16 %5, 63
  %7 = and i16 %1, 31
  %8 = mul nuw nsw i16 %4, 33
  %9 = lshr i16 %8, 2
  %10 = trunc nuw i16 %9 to i8
  store i8 %10, ptr %0, align 1, !tbaa !3
  %11 = mul nuw nsw i16 %6, 65
  %12 = lshr i16 %11, 4
  %13 = trunc nuw i16 %12 to i8
  %14 = getelementptr inbounds nuw i8, ptr %0, i64 1
  store i8 %13, ptr %14, align 1, !tbaa !3
  %narrow.i = mul nuw nsw i16 %7, 33
  %15 = lshr i16 %narrow.i, 2
  %16 = trunc nuw i16 %15 to i8
  %17 = getelementptr inbounds nuw i8, ptr %0, i64 2
  store i8 %16, ptr %17, align 1, !tbaa !3
  %18 = getelementptr inbounds nuw i8, ptr %0, i64 3
  store i8 0, ptr %18, align 1, !tbaa !3
  %19 = getelementptr inbounds nuw i8, ptr %0, i64 4
  %20 = lshr i16 %2, 11
  %21 = lshr i16 %2, 5
  %22 = and i16 %21, 63
  %23 = and i16 %2, 31
  %24 = mul nuw nsw i16 %20, 33
  %25 = lshr i16 %24, 2
  %26 = trunc nuw i16 %25 to i8
  store i8 %26, ptr %19, align 1, !tbaa !3
  %27 = mul nuw nsw i16 %22, 65
  %28 = lshr i16 %27, 4
  %29 = trunc nuw i16 %28 to i8
  %30 = getelementptr inbounds nuw i8, ptr %0, i64 5
  store i8 %29, ptr %30, align 1, !tbaa !3
  %narrow.i9 = mul nuw nsw i16 %23, 33
  %31 = lshr i16 %narrow.i9, 2
  %32 = trunc nuw i16 %31 to i8
  %33 = getelementptr inbounds nuw i8, ptr %0, i64 6
  store i8 %32, ptr %33, align 1, !tbaa !3
  %34 = getelementptr inbounds nuw i8, ptr %0, i64 7
  store i8 0, ptr %34, align 1, !tbaa !3
  %35 = getelementptr inbounds nuw i8, ptr %0, i64 8
  %36 = shl nuw nsw i16 %9, 1
  %.lhs.trunc.i = add nuw nsw i16 %36, %25
  %37 = udiv i16 %.lhs.trunc.i, 3
  %38 = trunc nuw i16 %37 to i8
  store i8 %38, ptr %35, align 1, !tbaa !3
  %39 = shl nuw nsw i16 %12, 1
  %.lhs.trunc9.i = add nuw nsw i16 %39, %28
  %40 = udiv i16 %.lhs.trunc9.i, 3
  %41 = trunc nuw i16 %40 to i8
  %42 = getelementptr inbounds nuw i8, ptr %0, i64 9
  store i8 %41, ptr %42, align 1, !tbaa !3
  %43 = shl nuw nsw i16 %15, 1
  %.lhs.trunc11.i = add nuw nsw i16 %43, %31
  %44 = udiv i16 %.lhs.trunc11.i, 3
  %45 = trunc nuw i16 %44 to i8
  %46 = getelementptr inbounds nuw i8, ptr %0, i64 10
  store i8 %45, ptr %46, align 1, !tbaa !3
  %47 = getelementptr inbounds nuw i8, ptr %0, i64 12
  %48 = shl nuw nsw i16 %25, 1
  %.lhs.trunc.i10 = add nuw nsw i16 %48, %9
  %49 = udiv i16 %.lhs.trunc.i10, 3
  %50 = trunc nuw i16 %49 to i8
  store i8 %50, ptr %47, align 1, !tbaa !3
  %51 = shl nuw nsw i16 %28, 1
  %.lhs.trunc9.i11 = add nuw nsw i16 %51, %12
  %52 = udiv i16 %.lhs.trunc9.i11, 3
  %53 = trunc nuw i16 %52 to i8
  %54 = getelementptr inbounds nuw i8, ptr %0, i64 13
  store i8 %53, ptr %54, align 1, !tbaa !3
  %55 = shl nuw nsw i16 %31, 1
  %.lhs.trunc11.i12 = add nuw nsw i16 %55, %15
  %56 = udiv i16 %.lhs.trunc11.i12, 3
  %57 = trunc nuw i16 %56 to i8
  %58 = getelementptr inbounds nuw i8, ptr %0, i64 14
  store i8 %57, ptr %58, align 1, !tbaa !3
  ret void
}